#include <math.h>
#include <stdio.h>
#include <stdlib.h>
#include <string.h>

int main()
{
    int a[100000];
    int n,i,j,s;
    s=0;
    scanf("%d",&n);
    for(i=1;i<=n;i++)
    scanf("%d",&a[i]);
   
    for(i=1;i<=n;i++)
    {s=0;if(i==1){printf("%d",a[1]);}else
                         {for(j=1;j<i;j++)
                     {
                                     if(a[j]==a[i])
                                     s=s+1;
                                     }
                                     if(s==0)
                                     printf(" %d",a[i]);}
                                     
                                     }
                                     getchar();
                                     getchar();
                                     getchar();
                                     }
                                  